target datalayout = "e-m:e-p270:32:32-p271:32:32-p272:64:64-i64:64-i128:128-f80:128-n8:16:32:64-S128"
target triple = "x86_64-pc-linux-gnu"

%"class.folly::Range" = type { ptr, ptr }
%"struct.folly::json::(anonymous namespace)::Input" = type <{ %"class.folly::Range", ptr, i32, i32, i32, [4 x i8] }>
%class.anon.144 = type { ptr }
%class.anon.145 = type { ptr, ptr }

@.str.81 = private unnamed_addr constant [22 x i8] c"expected 4 hex digits\00", align 1
@.str.82 = private unnamed_addr constant [18 x i8] c"invalid hex digit\00", align 1

; Function Attrs: mustprogress nounwind uwtable
define linkonce_odr noundef nonnull align 1 dereferenceable(1) ptr @_ZN5folly5RangeIPKcE5frontEv(ptr noundef nonnull align 8 dereferenceable(16) %0) #3 comdat align 2 {
  %2 = alloca ptr, align 8
  store ptr %0, ptr %2, align 8, !tbaa !17
  %3 = load ptr, ptr %2, align 8
  %4 = getelementptr inbounds nuw %"class.folly::Range", ptr %3, i32 0, i32 0
  %5 = load ptr, ptr %4, align 8, !tbaa !24
  ret ptr %5
}

; Function Attrs: mustprogress nounwind uwtable
define linkonce_odr noundef zeroext i1 @_ZNK5folly5RangeIPKcE5emptyEv(ptr noundef nonnull align 8 dereferenceable(16) %0) #3 comdat align 2 {
  %2 = alloca ptr, align 8
  store ptr %0, ptr %2, align 8, !tbaa !17
  %3 = load ptr, ptr %2, align 8
  %4 = getelementptr inbounds nuw %"class.folly::Range", ptr %3, i32 0, i32 0
  %5 = load ptr, ptr %4, align 8, !tbaa !24
  %6 = getelementptr inbounds nuw %"class.folly::Range", ptr %3, i32 0, i32 1
  %7 = load ptr, ptr %6, align 8, !tbaa !26
  %8 = icmp eq ptr %5, %7
  ret i1 %8
}

; Function Attrs: mustprogress uwtable
define internal void @_ZN5folly4json12_GLOBAL__N_15Input12storeCurrentEv(ptr noundef nonnull align 8 dereferenceable(36) %0) #0 align 2 {
  %2 = alloca ptr, align 8
  store ptr %0, ptr %2, align 8, !tbaa !594
  %3 = load ptr, ptr %2, align 8
  %4 = getelementptr inbounds nuw %"struct.folly::json::(anonymous namespace)::Input", ptr %3, i32 0, i32 0
  %5 = call noundef zeroext i1 @_ZNK5folly5RangeIPKcE5emptyEv(ptr noundef nonnull align 8 dereferenceable(16) %4)
  br i1 %5, label %6, label %7

6:                                                ; preds = %1
  br label %12

7:                                                ; preds = %1
  %8 = getelementptr inbounds nuw %"struct.folly::json::(anonymous namespace)::Input", ptr %3, i32 0, i32 0
  %9 = call noundef nonnull align 1 dereferenceable(1) ptr @_ZN5folly5RangeIPKcE5frontEv(ptr noundef nonnull align 8 dereferenceable(16) %8)
  %10 = load i8, ptr %9, align 1, !tbaa !14
  %11 = sext i8 %10 to i32
  br label %12

12:                                               ; preds = %7, %6
  %13 = phi i32 [ -1, %6 ], [ %11, %7 ]
  %14 = getelementptr inbounds nuw %"struct.folly::json::(anonymous namespace)::Input", ptr %3, i32 0, i32 3
  store i32 %13, ptr %14, align 4, !tbaa !603
  ret void
}

; Function Attrs: mustprogress nounwind uwtable
define linkonce_odr void @_ZN5folly5RangeIPKcE9pop_frontEv(ptr noundef nonnull align 8 dereferenceable(16) %0) #3 comdat align 2 {
  %2 = alloca ptr, align 8
  store ptr %0, ptr %2, align 8, !tbaa !17
  %3 = load ptr, ptr %2, align 8
  %4 = getelementptr inbounds nuw %"class.folly::Range", ptr %3, i32 0, i32 0
  %5 = load ptr, ptr %4, align 8, !tbaa !24
  %6 = getelementptr inbounds nuw i8, ptr %5, i32 1
  store ptr %6, ptr %4, align 8, !tbaa !24
  ret void
}

; Function Attrs: mustprogress uwtable
define internal noundef zeroext i16 @_ZNK5folly4json12_GLOBAL__N_15Input5errorItEET_PKc(ptr noundef nonnull align 8 dereferenceable(36) %0, ptr noundef %1) #0 align 2 {
  %3 = alloca ptr, align 8
  %4 = alloca ptr, align 8
  store ptr %0, ptr %3, align 8, !tbaa !594
  store ptr %1, ptr %4, align 8, !tbaa !12
  %5 = load ptr, ptr %3, align 8
  %6 = load ptr, ptr %4, align 8, !tbaa !12
  call void @_ZNK5folly4json12_GLOBAL__N_15Input5errorEPKc(ptr noundef nonnull align 8 dereferenceable(36) %5, ptr noundef %6) #35
  unreachable
}

; Function Attrs: mustprogress nounwind uwtable
define linkonce_odr noundef i64 @_ZNK5folly5RangeIPKcE4sizeEv(ptr noundef nonnull align 8 dereferenceable(16) %0) #3 comdat align 2 {
  %2 = alloca ptr, align 8
  store ptr %0, ptr %2, align 8, !tbaa !17
  %3 = load ptr, ptr %2, align 8
  %4 = getelementptr inbounds nuw %"class.folly::Range", ptr %3, i32 0, i32 1
  %5 = load ptr, ptr %4, align 8, !tbaa !26
  %6 = getelementptr inbounds nuw %"class.folly::Range", ptr %3, i32 0, i32 0
  %7 = load ptr, ptr %6, align 8, !tbaa !24
  %8 = ptrtoint ptr %5 to i64
  %9 = ptrtoint ptr %7 to i64
  %10 = sub i64 %8, %9
  ret i64 %10
}

; Function Attrs: mustprogress uwtable
define internal void @_ZN5folly4json12_GLOBAL__N_15InputppEv(ptr noundef nonnull align 8 dereferenceable(36) %0) #0 align 2 {
  %2 = alloca ptr, align 8
  store ptr %0, ptr %2, align 8, !tbaa !594
  %3 = load ptr, ptr %2, align 8
  %4 = getelementptr inbounds nuw %"struct.folly::json::(anonymous namespace)::Input", ptr %3, i32 0, i32 0
  call void @_ZN5folly5RangeIPKcE9pop_frontEv(ptr noundef nonnull align 8 dereferenceable(16) %4)
  call void @_ZN5folly4json12_GLOBAL__N_15Input12storeCurrentEv(ptr noundef nonnull align 8 dereferenceable(36) %3)
  ret void
}

; Function Attrs: inlinehint mustprogress uwtable
define internal noundef zeroext i16 @"_ZZN5folly4json12_GLOBAL__N_119decodeUnicodeEscapeERNS1_5InputERNSt7__cxx1112basic_stringIcSt11char_traitsIcESaIcEEEENK3$_0clEi"(ptr noundef nonnull align 8 dereferenceable(8) %0, i32 noundef %1) #7 align 2 {
  %3 = alloca ptr, align 8
  %4 = alloca i32, align 4
  store ptr %0, ptr %3, align 8, !tbaa !101
  store i32 %1, ptr %4, align 4, !tbaa !33
  %5 = load ptr, ptr %3, align 8
  %6 = load i32, ptr %4, align 4, !tbaa !33
  %7 = icmp sge i32 %6, 48
  br i1 %7, label %8, label %14

8:                                                ; preds = %2
  %9 = load i32, ptr %4, align 4, !tbaa !33
  %10 = icmp sle i32 %9, 57
  br i1 %10, label %11, label %14

11:                                               ; preds = %8
  %12 = load i32, ptr %4, align 4, !tbaa !33
  %13 = sub nsw i32 %12, 48
  br label %43

14:                                               ; preds = %8, %2
  %15 = load i32, ptr %4, align 4, !tbaa !33
  %16 = icmp sge i32 %15, 97
  br i1 %16, label %17, label %24

17:                                               ; preds = %14
  %18 = load i32, ptr %4, align 4, !tbaa !33
  %19 = icmp sle i32 %18, 102
  br i1 %19, label %20, label %24

20:                                               ; preds = %17
  %21 = load i32, ptr %4, align 4, !tbaa !33
  %22 = sub nsw i32 %21, 97
  %23 = add nsw i32 %22, 10
  br label %41

24:                                               ; preds = %17, %14
  %25 = load i32, ptr %4, align 4, !tbaa !33
  %26 = icmp sge i32 %25, 65
  br i1 %26, label %27, label %34

27:                                               ; preds = %24
  %28 = load i32, ptr %4, align 4, !tbaa !33
  %29 = icmp sle i32 %28, 70
  br i1 %29, label %30, label %34

30:                                               ; preds = %27
  %31 = load i32, ptr %4, align 4, !tbaa !33
  %32 = sub nsw i32 %31, 65
  %33 = add nsw i32 %32, 10
  br label %39

34:                                               ; preds = %27, %24
  %35 = getelementptr inbounds nuw %class.anon.144, ptr %5, i32 0, i32 0
  %36 = load ptr, ptr %35, align 8, !tbaa !834
  %37 = call noundef zeroext i16 @_ZNK5folly4json12_GLOBAL__N_15Input5errorItEET_PKc(ptr noundef nonnull align 8 dereferenceable(36) %36, ptr noundef @.str.82)
  %38 = zext i16 %37 to i32
  br label %39

39:                                               ; preds = %34, %30
  %40 = phi i32 [ %33, %30 ], [ %38, %34 ]
  br label %41

41:                                               ; preds = %39, %20
  %42 = phi i32 [ %23, %20 ], [ %40, %39 ]
  br label %43

43:                                               ; preds = %41, %11
  %44 = phi i32 [ %13, %11 ], [ %42, %41 ]
  %45 = trunc i32 %44 to i16
  ret i16 %45
}

; Function Attrs: mustprogress nounwind uwtable
define internal noundef i32 @_ZNK5folly4json12_GLOBAL__N_15InputdeEv(ptr noundef nonnull align 8 dereferenceable(36) %0) #3 align 2 {
  %2 = alloca ptr, align 8
  store ptr %0, ptr %2, align 8, !tbaa !594
  %3 = load ptr, ptr %2, align 8
  %4 = getelementptr inbounds nuw %"struct.folly::json::(anonymous namespace)::Input", ptr %3, i32 0, i32 3
  %5 = load i32, ptr %4, align 4, !tbaa !603
  ret i32 %5
}

; Function Attrs: mustprogress nounwind uwtable
define internal noundef i64 @_ZNK5folly4json12_GLOBAL__N_15Input4sizeEv(ptr noundef nonnull align 8 dereferenceable(36) %0) #3 align 2 {
  %2 = alloca ptr, align 8
  store ptr %0, ptr %2, align 8, !tbaa !594
  %3 = load ptr, ptr %2, align 8
  %4 = getelementptr inbounds nuw %"struct.folly::json::(anonymous namespace)::Input", ptr %3, i32 0, i32 0
  %5 = call noundef i64 @_ZNK5folly5RangeIPKcE4sizeEv(ptr noundef nonnull align 8 dereferenceable(16) %4)
  ret i64 %5
}

; Function Attrs: inlinehint mustprogress uwtable
define internal noundef zeroext i16 @"_ZZN5folly4json12_GLOBAL__N_119decodeUnicodeEscapeERNS1_5InputERNSt7__cxx1112basic_stringIcSt11char_traitsIcESaIcEEEENK3$_1clEv"(ptr noundef nonnull align 8 dereferenceable(16) %0) #7 align 2 {
  %2 = alloca ptr, align 8
  %3 = alloca i16, align 2
  store ptr %0, ptr %2, align 8, !tbaa !101
  %4 = load ptr, ptr %2, align 8
  %5 = getelementptr inbounds nuw %class.anon.145, ptr %4, i32 0, i32 0
  %6 = load ptr, ptr %5, align 8, !tbaa !831
  %7 = call noundef i64 @_ZNK5folly4json12_GLOBAL__N_15Input4sizeEv(ptr noundef nonnull align 8 dereferenceable(36) %6)
  %8 = icmp ult i64 %7, 4
  br i1 %8, label %9, label %12

9:                                                ; preds = %1
  %10 = getelementptr inbounds nuw %class.anon.145, ptr %4, i32 0, i32 0
  %11 = load ptr, ptr %10, align 8, !tbaa !831
  call void @_ZNK5folly4json12_GLOBAL__N_15Input5errorEPKc(ptr noundef nonnull align 8 dereferenceable(36) %11, ptr noundef @.str.81) #35
  unreachable

12:                                               ; preds = %1
  call void @llvm.lifetime.start.p0(i64 2, ptr %3) #33
  %13 = getelementptr inbounds nuw %class.anon.145, ptr %4, i32 0, i32 1
  %14 = load ptr, ptr %13, align 8, !tbaa !833
  %15 = getelementptr inbounds nuw %class.anon.145, ptr %4, i32 0, i32 0
  %16 = load ptr, ptr %15, align 8, !tbaa !831
  %17 = call noundef i32 @_ZNK5folly4json12_GLOBAL__N_15InputdeEv(ptr noundef nonnull align 8 dereferenceable(36) %16)
  %18 = call noundef zeroext i16 @"_ZZN5folly4json12_GLOBAL__N_119decodeUnicodeEscapeERNS1_5InputERNSt7__cxx1112basic_stringIcSt11char_traitsIcESaIcEEEENK3$_0clEi"(ptr noundef nonnull align 8 dereferenceable(8) %14, i32 noundef %17)
  %19 = zext i16 %18 to i32
  %20 = mul nsw i32 %19, 4096
  %21 = trunc i32 %20 to i16
  store i16 %21, ptr %3, align 2, !tbaa !144
  %22 = getelementptr inbounds nuw %class.anon.145, ptr %4, i32 0, i32 0
  %23 = load ptr, ptr %22, align 8, !tbaa !831
  call void @_ZN5folly4json12_GLOBAL__N_15InputppEv(ptr noundef nonnull align 8 dereferenceable(36) %23)
  %24 = getelementptr inbounds nuw %class.anon.145, ptr %4, i32 0, i32 1
  %25 = load ptr, ptr %24, align 8, !tbaa !833
  %26 = getelementptr inbounds nuw %class.anon.145, ptr %4, i32 0, i32 0
  %27 = load ptr, ptr %26, align 8, !tbaa !831
  %28 = call noundef i32 @_ZNK5folly4json12_GLOBAL__N_15InputdeEv(ptr noundef nonnull align 8 dereferenceable(36) %27)
  %29 = call noundef zeroext i16 @"_ZZN5folly4json12_GLOBAL__N_119decodeUnicodeEscapeERNS1_5InputERNSt7__cxx1112basic_stringIcSt11char_traitsIcESaIcEEEENK3$_0clEi"(ptr noundef nonnull align 8 dereferenceable(8) %25, i32 noundef %28)
  %30 = zext i16 %29 to i32
  %31 = mul nsw i32 %30, 256
  %32 = load i16, ptr %3, align 2, !tbaa !144
  %33 = zext i16 %32 to i32
  %34 = add nsw i32 %33, %31
  %35 = trunc i32 %34 to i16
  store i16 %35, ptr %3, align 2, !tbaa !144
  %36 = getelementptr inbounds nuw %class.anon.145, ptr %4, i32 0, i32 0
  %37 = load ptr, ptr %36, align 8, !tbaa !831
  call void @_ZN5folly4json12_GLOBAL__N_15InputppEv(ptr noundef nonnull align 8 dereferenceable(36) %37)
  %38 = getelementptr inbounds nuw %class.anon.145, ptr %4, i32 0, i32 1
  %39 = load ptr, ptr %38, align 8, !tbaa !833
  %40 = getelementptr inbounds nuw %class.anon.145, ptr %4, i32 0, i32 0
  %41 = load ptr, ptr %40, align 8, !tbaa !831
  %42 = call noundef i32 @_ZNK5folly4json12_GLOBAL__N_15InputdeEv(ptr noundef nonnull align 8 dereferenceable(36) %41)
  %43 = call noundef zeroext i16 @"_ZZN5folly4json12_GLOBAL__N_119decodeUnicodeEscapeERNS1_5InputERNSt7__cxx1112basic_stringIcSt11char_traitsIcESaIcEEEENK3$_0clEi"(ptr noundef nonnull align 8 dereferenceable(8) %39, i32 noundef %42)
  %44 = zext i16 %43 to i32
  %45 = mul nsw i32 %44, 16
  %46 = load i16, ptr %3, align 2, !tbaa !144
  %47 = zext i16 %46 to i32
  %48 = add nsw i32 %47, %45
  %49 = trunc i32 %48 to i16
  store i16 %49, ptr %3, align 2, !tbaa !144
  %50 = getelementptr inbounds nuw %class.anon.145, ptr %4, i32 0, i32 0
  %51 = load ptr, ptr %50, align 8, !tbaa !831
  call void @_ZN5folly4json12_GLOBAL__N_15InputppEv(ptr noundef nonnull align 8 dereferenceable(36) %51)
  %52 = getelementptr inbounds nuw %class.anon.145, ptr %4, i32 0, i32 1
  %53 = load ptr, ptr %52, align 8, !tbaa !833
  %54 = getelementptr inbounds nuw %class.anon.145, ptr %4, i32 0, i32 0
  %55 = load ptr, ptr %54, align 8, !tbaa !831
  %56 = call noundef i32 @_ZNK5folly4json12_GLOBAL__N_15InputdeEv(ptr noundef nonnull align 8 dereferenceable(36) %55)
  %57 = call noundef zeroext i16 @"_ZZN5folly4json12_GLOBAL__N_119decodeUnicodeEscapeERNS1_5InputERNSt7__cxx1112basic_stringIcSt11char_traitsIcESaIcEEEENK3$_0clEi"(ptr noundef nonnull align 8 dereferenceable(8) %53, i32 noundef %56)
  %58 = zext i16 %57 to i32
  %59 = load i16, ptr %3, align 2, !tbaa !144
  %60 = zext i16 %59 to i32
  %61 = add nsw i32 %60, %58
  %62 = trunc i32 %61 to i16
  store i16 %62, ptr %3, align 2, !tbaa !144
  %63 = getelementptr inbounds nuw %class.anon.145, ptr %4, i32 0, i32 0
  %64 = load ptr, ptr %63, align 8, !tbaa !831
  call void @_ZN5folly4json12_GLOBAL__N_15InputppEv(ptr noundef nonnull align 8 dereferenceable(36) %64)
  %65 = load i16, ptr %3, align 2, !tbaa !144
  call void @llvm.lifetime.end.p0(i64 2, ptr %3) #33
  ret i16 %65
}