; Function Attrs: inlinehint mustprogress uwtable
define internal fastcc noundef zeroext i16 @"_ZZN5folly4json12_GLOBAL__N_119decodeUnicodeEscapeERNS1_5InputERNSt7__cxx1112basic_stringIcSt11char_traitsIcESaIcEEEENK3$_1clEv"(ptr captures(none) %.0.val, ptr readonly captures(none) %.8.val) unnamed_addr #6 align 2 {
  %.val7 = load ptr, ptr %.0.val, align 8, !tbaa !326
  %1 = getelementptr i8, ptr %.0.val, i64 8
  %.val8 = load ptr, ptr %1, align 8, !tbaa !325
  %2 = ptrtoint ptr %.val8 to i64
  %3 = ptrtoint ptr %.val7 to i64
  %4 = sub i64 %2, %3
  %5 = icmp ult i64 %4, 4
  br i1 %5, label %6, label %7

6:                                                ; preds = %0
  tail call fastcc void @_ZNK5folly4json12_GLOBAL__N_15Input5errorEPKc(ptr noundef nonnull align 8 dereferenceable(36) %.0.val, ptr noundef nonnull @.str.81) #33
  unreachable

7:                                                ; preds = %0
  %8 = getelementptr i8, ptr %.0.val, i64 28
  %.val6 = load i32, ptr %8, align 4, !tbaa !322
  %.val9 = load ptr, ptr %.8.val, align 8
  %9 = add i32 %.val6, -48
  %or.cond.i = icmp ult i32 %9, 10
  br i1 %or.cond.i, label %"_ZZN5folly4json12_GLOBAL__N_119decodeUnicodeEscapeERNS1_5InputERNSt7__cxx1112basic_stringIcSt11char_traitsIcESaIcEEEENK3$_0clEi.exit", label %10

10:                                               ; preds = %7
  %11 = add i32 %.val6, -97
  %or.cond3.i = icmp ult i32 %11, 6
  br i1 %or.cond3.i, label %12, label %14

12:                                               ; preds = %10
  %13 = add nsw i32 %.val6, -87
  br label %"_ZZN5folly4json12_GLOBAL__N_119decodeUnicodeEscapeERNS1_5InputERNSt7__cxx1112basic_stringIcSt11char_traitsIcESaIcEEEENK3$_0clEi.exit"

14:                                               ; preds = %10
  %15 = add i32 %.val6, -65
  %or.cond5.i = icmp ult i32 %15, 6
  br i1 %or.cond5.i, label %16, label %18

16:                                               ; preds = %14
  %17 = add nsw i32 %.val6, -55
  br label %"_ZZN5folly4json12_GLOBAL__N_119decodeUnicodeEscapeERNS1_5InputERNSt7__cxx1112basic_stringIcSt11char_traitsIcESaIcEEEENK3$_0clEi.exit"

18:                                               ; preds = %14
  tail call fastcc void @_ZNK5folly4json12_GLOBAL__N_15Input5errorEPKc(ptr noundef nonnull readonly align 8 dereferenceable(36) %.val9, ptr noundef nonnull @.str.82) #33
  unreachable

"_ZZN5folly4json12_GLOBAL__N_119decodeUnicodeEscapeERNS1_5InputERNSt7__cxx1112basic_stringIcSt11char_traitsIcESaIcEEEENK3$_0clEi.exit": ; preds = %7, %12, %16
  %19 = phi i32 [ %13, %12 ], [ %17, %16 ], [ %9, %7 ]
  %20 = getelementptr inbounds nuw i8, ptr %.val7, i64 1
  store ptr %20, ptr %.0.val, align 8, !tbaa !326
  %21 = icmp eq ptr %20, %.val8
  br i1 %21, label %.thread7, label %_ZN5folly4json12_GLOBAL__N_15InputppEv.exit

.thread7:                                         ; preds = %"_ZZN5folly4json12_GLOBAL__N_119decodeUnicodeEscapeERNS1_5InputERNSt7__cxx1112basic_stringIcSt11char_traitsIcESaIcEEEENK3$_0clEi.exit"
  store i32 -1, ptr %8, align 4, !tbaa !322
  %.val101 = load ptr, ptr %.8.val, align 8
  br label %33

_ZN5folly4json12_GLOBAL__N_15InputppEv.exit:      ; preds = %"_ZZN5folly4json12_GLOBAL__N_119decodeUnicodeEscapeERNS1_5InputERNSt7__cxx1112basic_stringIcSt11char_traitsIcESaIcEEEENK3$_0clEi.exit"
  %22 = load i8, ptr %20, align 1, !tbaa !7
  %23 = sext i8 %22 to i32
  store i32 %23, ptr %8, align 4, !tbaa !322
  %.val10 = load ptr, ptr %.8.val, align 8
  %24 = add nsw i32 %23, -48
  %or.cond.i13 = icmp ult i32 %24, 10
  br i1 %or.cond.i13, label %"_ZZN5folly4json12_GLOBAL__N_119decodeUnicodeEscapeERNS1_5InputERNSt7__cxx1112basic_stringIcSt11char_traitsIcESaIcEEEENK3$_0clEi.exit16", label %25

25:                                               ; preds = %_ZN5folly4json12_GLOBAL__N_15InputppEv.exit
  %26 = add nsw i32 %23, -97
  %or.cond3.i14 = icmp ult i32 %26, 6
  br i1 %or.cond3.i14, label %27, label %29

27:                                               ; preds = %25
  %28 = add nsw i32 %23, -87
  br label %"_ZZN5folly4json12_GLOBAL__N_119decodeUnicodeEscapeERNS1_5InputERNSt7__cxx1112basic_stringIcSt11char_traitsIcESaIcEEEENK3$_0clEi.exit16"

29:                                               ; preds = %25
  %30 = add nsw i32 %23, -65
  %or.cond5.i15 = icmp ult i32 %30, 6
  br i1 %or.cond5.i15, label %31, label %33

31:                                               ; preds = %29
  %32 = add nsw i32 %23, -55
  br label %"_ZZN5folly4json12_GLOBAL__N_119decodeUnicodeEscapeERNS1_5InputERNSt7__cxx1112basic_stringIcSt11char_traitsIcESaIcEEEENK3$_0clEi.exit16"

33:                                               ; preds = %.thread7, %29
  %.val103610 = phi ptr [ %.val101, %.thread7 ], [ %.val10, %29 ]
  tail call fastcc void @_ZNK5folly4json12_GLOBAL__N_15Input5errorEPKc(ptr noundef nonnull readonly align 8 dereferenceable(36) %.val103610, ptr noundef nonnull @.str.82) #33
  unreachable

"_ZZN5folly4json12_GLOBAL__N_119decodeUnicodeEscapeERNS1_5InputERNSt7__cxx1112basic_stringIcSt11char_traitsIcESaIcEEEENK3$_0clEi.exit16": ; preds = %_ZN5folly4json12_GLOBAL__N_15InputppEv.exit, %27, %31
  %34 = phi i32 [ %28, %27 ], [ %32, %31 ], [ %24, %_ZN5folly4json12_GLOBAL__N_15InputppEv.exit ]
  %35 = getelementptr inbounds nuw i8, ptr %.val7, i64 2
  store ptr %35, ptr %.0.val, align 8, !tbaa !326
  %36 = icmp eq ptr %35, %.val8
  br i1 %36, label %.thread18, label %_ZN5folly4json12_GLOBAL__N_15InputppEv.exit17

.thread18:                                        ; preds = %"_ZZN5folly4json12_GLOBAL__N_119decodeUnicodeEscapeERNS1_5InputERNSt7__cxx1112basic_stringIcSt11char_traitsIcESaIcEEEENK3$_0clEi.exit16"
  store i32 -1, ptr %8, align 4, !tbaa !322
  %.val1111 = load ptr, ptr %.8.val, align 8
  br label %48

_ZN5folly4json12_GLOBAL__N_15InputppEv.exit17:    ; preds = %"_ZZN5folly4json12_GLOBAL__N_119decodeUnicodeEscapeERNS1_5InputERNSt7__cxx1112basic_stringIcSt11char_traitsIcESaIcEEEENK3$_0clEi.exit16"
  %37 = load i8, ptr %35, align 1, !tbaa !7
  %38 = sext i8 %37 to i32
  store i32 %38, ptr %8, align 4, !tbaa !322
  %.val11 = load ptr, ptr %.8.val, align 8
  %39 = add nsw i32 %38, -48
  %or.cond.i18 = icmp ult i32 %39, 10
  br i1 %or.cond.i18, label %"_ZZN5folly4json12_GLOBAL__N_119decodeUnicodeEscapeERNS1_5InputERNSt7__cxx1112basic_stringIcSt11char_traitsIcESaIcEEEENK3$_0clEi.exit21", label %40

40:                                               ; preds = %_ZN5folly4json12_GLOBAL__N_15InputppEv.exit17
  %41 = add nsw i32 %38, -97
  %or.cond3.i19 = icmp ult i32 %41, 6
  br i1 %or.cond3.i19, label %42, label %44

42:                                               ; preds = %40
  %43 = add nsw i32 %38, -87
  br label %"_ZZN5folly4json12_GLOBAL__N_119decodeUnicodeEscapeERNS1_5InputERNSt7__cxx1112basic_stringIcSt11char_traitsIcESaIcEEEENK3$_0clEi.exit21"

44:                                               ; preds = %40
  %45 = add nsw i32 %38, -65
  %or.cond5.i20 = icmp ult i32 %45, 6
  br i1 %or.cond5.i20, label %46, label %48

46:                                               ; preds = %44
  %47 = add nsw i32 %38, -55
  br label %"_ZZN5folly4json12_GLOBAL__N_119decodeUnicodeEscapeERNS1_5InputERNSt7__cxx1112basic_stringIcSt11char_traitsIcESaIcEEEENK3$_0clEi.exit21"

48:                                               ; preds = %.thread18, %44
  %.val11131721 = phi ptr [ %.val1111, %.thread18 ], [ %.val11, %44 ]
  tail call fastcc void @_ZNK5folly4json12_GLOBAL__N_15Input5errorEPKc(ptr noundef nonnull readonly align 8 dereferenceable(36) %.val11131721, ptr noundef nonnull @.str.82) #33
  unreachable

"_ZZN5folly4json12_GLOBAL__N_119decodeUnicodeEscapeERNS1_5InputERNSt7__cxx1112basic_stringIcSt11char_traitsIcESaIcEEEENK3$_0clEi.exit21": ; preds = %_ZN5folly4json12_GLOBAL__N_15InputppEv.exit17, %42, %46
  %49 = phi i32 [ %43, %42 ], [ %47, %46 ], [ %39, %_ZN5folly4json12_GLOBAL__N_15InputppEv.exit17 ]
  %50 = getelementptr inbounds nuw i8, ptr %.val7, i64 3
  store ptr %50, ptr %.0.val, align 8, !tbaa !326
  %51 = icmp eq ptr %50, %.val8
  br i1 %51, label %.thread29, label %_ZN5folly4json12_GLOBAL__N_15InputppEv.exit22

.thread29:                                        ; preds = %"_ZZN5folly4json12_GLOBAL__N_119decodeUnicodeEscapeERNS1_5InputERNSt7__cxx1112basic_stringIcSt11char_traitsIcESaIcEEEENK3$_0clEi.exit21"
  store i32 -1, ptr %8, align 4, !tbaa !322
  %.val1222 = load ptr, ptr %.8.val, align 8
  br label %63

_ZN5folly4json12_GLOBAL__N_15InputppEv.exit22:    ; preds = %"_ZZN5folly4json12_GLOBAL__N_119decodeUnicodeEscapeERNS1_5InputERNSt7__cxx1112basic_stringIcSt11char_traitsIcESaIcEEEENK3$_0clEi.exit21"
  %52 = load i8, ptr %50, align 1, !tbaa !7
  %53 = sext i8 %52 to i32
  store i32 %53, ptr %8, align 4, !tbaa !322
  %.val12 = load ptr, ptr %.8.val, align 8
  %54 = add nsw i32 %53, -48
  %or.cond.i23 = icmp ult i32 %54, 10
  br i1 %or.cond.i23, label %"_ZZN5folly4json12_GLOBAL__N_119decodeUnicodeEscapeERNS1_5InputERNSt7__cxx1112basic_stringIcSt11char_traitsIcESaIcEEEENK3$_0clEi.exit26", label %55

55:                                               ; preds = %_ZN5folly4json12_GLOBAL__N_15InputppEv.exit22
  %56 = add nsw i32 %53, -97
  %or.cond3.i24 = icmp ult i32 %56, 6
  br i1 %or.cond3.i24, label %57, label %59

57:                                               ; preds = %55
  %58 = add nsw i32 %53, -87
  br label %"_ZZN5folly4json12_GLOBAL__N_119decodeUnicodeEscapeERNS1_5InputERNSt7__cxx1112basic_stringIcSt11char_traitsIcESaIcEEEENK3$_0clEi.exit26"

59:                                               ; preds = %55
  %60 = add nsw i32 %53, -65
  %or.cond5.i25 = icmp ult i32 %60, 6
  br i1 %or.cond5.i25, label %61, label %63

61:                                               ; preds = %59
  %62 = add nsw i32 %53, -55
  br label %"_ZZN5folly4json12_GLOBAL__N_119decodeUnicodeEscapeERNS1_5InputERNSt7__cxx1112basic_stringIcSt11char_traitsIcESaIcEEEENK3$_0clEi.exit26"

63:                                               ; preds = %.thread29, %59
  %.val12242832 = phi ptr [ %.val1222, %.thread29 ], [ %.val12, %59 ]
  tail call fastcc void @_ZNK5folly4json12_GLOBAL__N_15Input5errorEPKc(ptr noundef nonnull readonly align 8 dereferenceable(36) %.val12242832, ptr noundef nonnull @.str.82) #33
  unreachable

"_ZZN5folly4json12_GLOBAL__N_119decodeUnicodeEscapeERNS1_5InputERNSt7__cxx1112basic_stringIcSt11char_traitsIcESaIcEEEENK3$_0clEi.exit26": ; preds = %_ZN5folly4json12_GLOBAL__N_15InputppEv.exit22, %57, %61
  %64 = phi i32 [ %58, %57 ], [ %62, %61 ], [ %54, %_ZN5folly4json12_GLOBAL__N_15InputppEv.exit22 ]
  %65 = getelementptr inbounds nuw i8, ptr %.val7, i64 4
  store ptr %65, ptr %.0.val, align 8, !tbaa !326
  %66 = icmp eq ptr %65, %.val8
  br i1 %66, label %_ZN5folly4json12_GLOBAL__N_15InputppEv.exit27, label %67

67:                                               ; preds = %"_ZZN5folly4json12_GLOBAL__N_119decodeUnicodeEscapeERNS1_5InputERNSt7__cxx1112basic_stringIcSt11char_traitsIcESaIcEEEENK3$_0clEi.exit26"
  %68 = load i8, ptr %65, align 1, !tbaa !7
  %69 = sext i8 %68 to i32
  br label %_ZN5folly4json12_GLOBAL__N_15InputppEv.exit27

_ZN5folly4json12_GLOBAL__N_15InputppEv.exit27:    ; preds = %"_ZZN5folly4json12_GLOBAL__N_119decodeUnicodeEscapeERNS1_5InputERNSt7__cxx1112basic_stringIcSt11char_traitsIcESaIcEEEENK3$_0clEi.exit26", %67
  %70 = phi i32 [ %69, %67 ], [ -1, %"_ZZN5folly4json12_GLOBAL__N_119decodeUnicodeEscapeERNS1_5InputERNSt7__cxx1112basic_stringIcSt11char_traitsIcESaIcEEEENK3$_0clEi.exit26" ]
  %71 = trunc nsw i32 %49 to i16
  %72 = shl nuw nsw i16 %71, 4
  %73 = trunc nsw i32 %34 to i16
  %74 = shl nuw nsw i16 %73, 8
  %75 = trunc i32 %19 to i16
  %76 = shl nuw i16 %75, 12
  %77 = add nuw i16 %74, %76
  %78 = add nuw i16 %77, %72
  %79 = trunc nsw i32 %64 to i16
  %80 = add nuw i16 %78, %79
  store i32 %70, ptr %8, align 4, !tbaa !322
  ret i16 %80
}